(dp0
S'show_imports'
p1
I1
sS'prj_name'
p2
S'assetmanager-api'
p3
sS'docformat'
p4
S'epytext'
p5
sS'inheritance'
p6
S'grouped'
p7
sS'help'
p8
NsS'modules'
p9
(VC:/Users/michael/workspace/assetmanager/lib/assets.py
p10
VC:/Users/michael/workspace/assetmanager/lib/environ.py
p11
VC:/Users/michael/workspace/assetmanager/lib/render.py
p12
VC:/Users/michael/workspace/assetmanager/lib/sequence.py
p13
VC:/Users/michael/workspace/assetmanager/lib/sql.py
p14
VC:/Users/michael/workspace/assetmanager/lib/system.py
p15
VC:/Users/michael/workspace/assetmanager/lib/shows.py
p16
VC:/Users/michael/workspace/assetmanager/lib/users.py
p17
VC:/Users/michael/workspace/assetmanager/lib/io.py
p18
tp19
sS'private'
p20
I1
sS'prj_url'
p21
NsS'introspect_or_parse'
p22
S'both'
p23
sS'frames'
p24
I1
sS'css'
p25
S'default'
p26
sS'target'
p27
S'C:/Users/michael/workspace/assetmanager/doc/api'
p28
s.